; Function Attrs: null_pointer_is_valid sspstrong uwtable
define internal noundef ptr @xteakeys_copy_cb(ptr noundef returned writeonly captures(ret: address, provenance) initializes((0, 4), (8, 16)) %0, ptr noundef readonly captures(none) %1, i64 %2) #0 {
  %4 = load i32, ptr %1, align 8
  store i32 %4, ptr %0, align 8
  %5 = getelementptr inbounds nuw i8, ptr %1, i64 8
  %6 = load ptr, ptr %5, align 8
  %7 = tail call noalias ptr @g_strdup(ptr noundef %6)
  %8 = getelementptr inbounds nuw i8, ptr %0, i64 8
  store ptr %7, ptr %8, align 8
  ret ptr %0
}